target datalayout = "e-m:e-p270:32:32-p271:32:32-p272:64:64-i64:64-i128:128-f80:128-n8:16:32:64-S128"
target triple = "x86_64-pc-linux-gnu"

%struct.BufFile = type { i32, ptr, i8, i8, i8, ptr, ptr, ptr, i32, i64, i32, i32, %union.PGAlignedBlock }
%union.PGAlignedBlock = type { double, [8184 x i8] }

@.str.1 = private unnamed_addr constant [10 x i8] c"buffile.c\00", align 1
@.str.6 = private unnamed_addr constant [34 x i8] c"could not delete fileset \22%s\22: %m\00", align 1
@__func__.BufFileTruncateFileSet = private unnamed_addr constant [23 x i8] c"BufFileTruncateFileSet\00", align 1
@.str.7 = private unnamed_addr constant [33 x i8] c"could not truncate file \22%s\22: %m\00", align 1
@.str.8 = private unnamed_addr constant [6 x i8] c"%s.%d\00", align 1

; Function Attrs: nounwind uwtable
define internal void @FileSetSegmentName(ptr noundef %0, ptr noundef %1, i32 noundef %2) #0 {
  %4 = alloca ptr, align 8
  %5 = alloca ptr, align 8
  %6 = alloca i32, align 4
  store ptr %0, ptr %4, align 8
  store ptr %1, ptr %5, align 8
  store i32 %2, ptr %6, align 4
  %7 = load ptr, ptr %4, align 8
  %8 = load ptr, ptr %5, align 8
  %9 = load i32, ptr %6, align 4
  %10 = call i32 (ptr, i64, ptr, ...) @pg_snprintf(ptr noundef %7, i64 noundef 1024, ptr noundef @.str.8, ptr noundef %8, i32 noundef %9)
  ret void
}

; Function Attrs: nounwind uwtable
define dso_local void @BufFileTruncateFileSet(ptr noundef %0, i32 noundef %1, i64 noundef %2) #0 {
  %4 = alloca ptr, align 8
  %5 = alloca i32, align 4
  %6 = alloca i64, align 8
  %7 = alloca i32, align 4
  %8 = alloca i32, align 4
  %9 = alloca i64, align 8
  %10 = alloca [1024 x i8], align 16
  %11 = alloca i32, align 4
  store ptr %0, ptr %4, align 8
  store i32 %1, ptr %5, align 4
  store i64 %2, ptr %6, align 8
  call void @llvm.lifetime.start.p0(i64 4, ptr %7) #8
  %12 = load ptr, ptr %4, align 8
  %13 = getelementptr inbounds nuw %struct.BufFile, ptr %12, i32 0, i32 0
  %14 = load i32, ptr %13, align 8
  store i32 %14, ptr %7, align 4
  call void @llvm.lifetime.start.p0(i64 4, ptr %8) #8
  %15 = load i32, ptr %5, align 4
  store i32 %15, ptr %8, align 4
  call void @llvm.lifetime.start.p0(i64 8, ptr %9) #8
  %16 = load ptr, ptr %4, align 8
  %17 = getelementptr inbounds nuw %struct.BufFile, ptr %16, i32 0, i32 9
  %18 = load i64, ptr %17, align 8
  store i64 %18, ptr %9, align 8
  call void @llvm.lifetime.start.p0(i64 1024, ptr %10) #8
  call void @llvm.lifetime.start.p0(i64 4, ptr %11) #8
  %19 = load ptr, ptr %4, align 8
  %20 = getelementptr inbounds nuw %struct.BufFile, ptr %19, i32 0, i32 0
  %21 = load i32, ptr %20, align 8
  %22 = sub i32 %21, 1
  store i32 %22, ptr %11, align 4
  br label %23

23:                                               ; preds = %112, %3
  %24 = load i32, ptr %11, align 4
  %25 = load i32, ptr %5, align 4
  %26 = icmp sge i32 %24, %25
  br i1 %26, label %27, label %115

27:                                               ; preds = %23
  %28 = load i32, ptr %11, align 4
  %29 = load i32, ptr %5, align 4
  %30 = icmp ne i32 %28, %29
  br i1 %30, label %34, label %31

31:                                               ; preds = %27
  %32 = load i64, ptr %6, align 8
  %33 = icmp eq i64 %32, 0
  br i1 %33, label %34, label %78

34:                                               ; preds = %31, %27
  %35 = load i32, ptr %11, align 4
  %36 = icmp ne i32 %35, 0
  br i1 %36, label %37, label %78

37:                                               ; preds = %34
  %38 = getelementptr inbounds [1024 x i8], ptr %10, i64 0, i64 0
  %39 = load ptr, ptr %4, align 8
  %40 = getelementptr inbounds nuw %struct.BufFile, ptr %39, i32 0, i32 6
  %41 = load ptr, ptr %40, align 8
  %42 = load i32, ptr %11, align 4
  call void @FileSetSegmentName(ptr noundef %38, ptr noundef %41, i32 noundef %42)
  %43 = load ptr, ptr %4, align 8
  %44 = getelementptr inbounds nuw %struct.BufFile, ptr %43, i32 0, i32 1
  %45 = load ptr, ptr %44, align 8
  %46 = load i32, ptr %11, align 4
  %47 = sext i32 %46 to i64
  %48 = getelementptr inbounds i32, ptr %45, i64 %47
  %49 = load i32, ptr %48, align 4
  call void @FileClose(i32 noundef %49)
  %50 = load ptr, ptr %4, align 8
  %51 = getelementptr inbounds nuw %struct.BufFile, ptr %50, i32 0, i32 5
  %52 = load ptr, ptr %51, align 8
  %53 = getelementptr inbounds [1024 x i8], ptr %10, i64 0, i64 0
  %54 = call zeroext i1 @FileSetDelete(ptr noundef %52, ptr noundef %53, i1 noundef zeroext true)
  br i1 %54, label %68, label %55

55:                                               ; preds = %37
  br label %56

56:                                               ; preds = %55
  br i1 true, label %57, label %59

57:                                               ; preds = %56
  %58 = call zeroext i1 @errstart_cold(i32 noundef 21, ptr noundef null) #9
  br i1 %58, label %61, label %65

59:                                               ; preds = %56
  %60 = call zeroext i1 @errstart(i32 noundef 21, ptr noundef null)
  br i1 %60, label %61, label %65

61:                                               ; preds = %59, %57
  %62 = call i32 @errcode_for_file_access()
  %63 = getelementptr inbounds [1024 x i8], ptr %10, i64 0, i64 0
  %64 = call i32 (ptr, ...) @errmsg(ptr noundef @.str.6, ptr noundef %63)
  call void @errfinish(ptr noundef @.str.1, i32 noundef 952, ptr noundef @__func__.BufFileTruncateFileSet)
  br label %65

65:                                               ; preds = %61, %59, %57
  unreachable

66:                                               ; No predecessors!
  br label %67

67:                                               ; preds = %66
  br label %68

68:                                               ; preds = %67, %37
  %69 = load i32, ptr %7, align 4
  %70 = add i32 %69, -1
  store i32 %70, ptr %7, align 4
  store i64 1073741824, ptr %9, align 8
  %71 = load i32, ptr %11, align 4
  %72 = load i32, ptr %5, align 4
  %73 = icmp eq i32 %71, %72
  br i1 %73, label %74, label %77

74:                                               ; preds = %68
  %75 = load i32, ptr %8, align 4
  %76 = add i32 %75, -1
  store i32 %76, ptr %8, align 4
  br label %77

77:                                               ; preds = %74, %68
  br label %111

78:                                               ; preds = %34, %31
  %79 = load ptr, ptr %4, align 8
  %80 = getelementptr inbounds nuw %struct.BufFile, ptr %79, i32 0, i32 1
  %81 = load ptr, ptr %80, align 8
  %82 = load i32, ptr %11, align 4
  %83 = sext i32 %82 to i64
  %84 = getelementptr inbounds i32, ptr %81, i64 %83
  %85 = load i32, ptr %84, align 4
  %86 = load i64, ptr %6, align 8
  %87 = call i32 @FileTruncate(i32 noundef %85, i64 noundef %86, i32 noundef 167772164)
  %88 = icmp slt i32 %87, 0
  br i1 %88, label %89, label %109

89:                                               ; preds = %78
  br label %90

90:                                               ; preds = %89
  br i1 true, label %91, label %93

91:                                               ; preds = %90
  %92 = call zeroext i1 @errstart_cold(i32 noundef 21, ptr noundef null) #9
  br i1 %92, label %95, label %106

93:                                               ; preds = %90
  %94 = call zeroext i1 @errstart(i32 noundef 21, ptr noundef null)
  br i1 %94, label %95, label %106

95:                                               ; preds = %93, %91
  %96 = call i32 @errcode_for_file_access()
  %97 = load ptr, ptr %4, align 8
  %98 = getelementptr inbounds nuw %struct.BufFile, ptr %97, i32 0, i32 1
  %99 = load ptr, ptr %98, align 8
  %100 = load i32, ptr %11, align 4
  %101 = sext i32 %100 to i64
  %102 = getelementptr inbounds i32, ptr %99, i64 %101
  %103 = load i32, ptr %102, align 4
  %104 = call ptr @FilePathName(i32 noundef %103)
  %105 = call i32 (ptr, ...) @errmsg(ptr noundef @.str.7, ptr noundef %104)
  call void @errfinish(ptr noundef @.str.1, i32 noundef 970, ptr noundef @__func__.BufFileTruncateFileSet)
  br label %106

106:                                              ; preds = %95, %93, %91
  unreachable

107:                                              ; No predecessors!
  br label %108

108:                                              ; preds = %107
  br label %109

109:                                              ; preds = %108, %78
  %110 = load i64, ptr %6, align 8
  store i64 %110, ptr %9, align 8
  br label %111

111:                                              ; preds = %109, %77
  br label %112

112:                                              ; preds = %111
  %113 = load i32, ptr %11, align 4
  %114 = add i32 %113, -1
  store i32 %114, ptr %11, align 4
  br label %23, !llvm.loop !15

115:                                              ; preds = %23
  %116 = load i32, ptr %7, align 4
  %117 = load ptr, ptr %4, align 8
  %118 = getelementptr inbounds nuw %struct.BufFile, ptr %117, i32 0, i32 0
  store i32 %116, ptr %118, align 8
  %119 = load i32, ptr %8, align 4
  %120 = load ptr, ptr %4, align 8
  %121 = getelementptr inbounds nuw %struct.BufFile, ptr %120, i32 0, i32 8
  %122 = load i32, ptr %121, align 8
  %123 = icmp eq i32 %119, %122
  br i1 %123, label %124, label %170

124:                                              ; preds = %115
  %125 = load i64, ptr %9, align 8
  %126 = load ptr, ptr %4, align 8
  %127 = getelementptr inbounds nuw %struct.BufFile, ptr %126, i32 0, i32 9
  %128 = load i64, ptr %127, align 8
  %129 = icmp sge i64 %125, %128
  br i1 %129, label %130, label %170

130:                                              ; preds = %124
  %131 = load i64, ptr %9, align 8
  %132 = load ptr, ptr %4, align 8
  %133 = getelementptr inbounds nuw %struct.BufFile, ptr %132, i32 0, i32 9
  %134 = load i64, ptr %133, align 8
  %135 = load ptr, ptr %4, align 8
  %136 = getelementptr inbounds nuw %struct.BufFile, ptr %135, i32 0, i32 11
  %137 = load i32, ptr %136, align 4
  %138 = sext i32 %137 to i64
  %139 = add i64 %134, %138
  %140 = icmp sle i64 %131, %139
  br i1 %140, label %141, label %170

141:                                              ; preds = %130
  %142 = load i64, ptr %9, align 8
  %143 = load ptr, ptr %4, align 8
  %144 = getelementptr inbounds nuw %struct.BufFile, ptr %143, i32 0, i32 9
  %145 = load i64, ptr %144, align 8
  %146 = load ptr, ptr %4, align 8
  %147 = getelementptr inbounds nuw %struct.BufFile, ptr %146, i32 0, i32 10
  %148 = load i32, ptr %147, align 8
  %149 = sext i32 %148 to i64
  %150 = add i64 %145, %149
  %151 = icmp sle i64 %142, %150
  br i1 %151, label %152, label %161

152:                                              ; preds = %141
  %153 = load i64, ptr %9, align 8
  %154 = load ptr, ptr %4, align 8
  %155 = getelementptr inbounds nuw %struct.BufFile, ptr %154, i32 0, i32 9
  %156 = load i64, ptr %155, align 8
  %157 = sub i64 %153, %156
  %158 = trunc i64 %157 to i32
  %159 = load ptr, ptr %4, align 8
  %160 = getelementptr inbounds nuw %struct.BufFile, ptr %159, i32 0, i32 10
  store i32 %158, ptr %160, align 8
  br label %161

161:                                              ; preds = %152, %141
  %162 = load i64, ptr %9, align 8
  %163 = load ptr, ptr %4, align 8
  %164 = getelementptr inbounds nuw %struct.BufFile, ptr %163, i32 0, i32 9
  %165 = load i64, ptr %164, align 8
  %166 = sub i64 %162, %165
  %167 = trunc i64 %166 to i32
  %168 = load ptr, ptr %4, align 8
  %169 = getelementptr inbounds nuw %struct.BufFile, ptr %168, i32 0, i32 11
  store i32 %167, ptr %169, align 4
  br label %209

170:                                              ; preds = %130, %124, %115
  %171 = load i32, ptr %8, align 4
  %172 = load ptr, ptr %4, align 8
  %173 = getelementptr inbounds nuw %struct.BufFile, ptr %172, i32 0, i32 8
  %174 = load i32, ptr %173, align 8
  %175 = icmp eq i32 %171, %174
  br i1 %175, label %176, label %190

176:                                              ; preds = %170
  %177 = load i64, ptr %9, align 8
  %178 = load ptr, ptr %4, align 8
  %179 = getelementptr inbounds nuw %struct.BufFile, ptr %178, i32 0, i32 9
  %180 = load i64, ptr %179, align 8
  %181 = icmp slt i64 %177, %180
  br i1 %181, label %182, label %190

182:                                              ; preds = %176
  %183 = load i64, ptr %9, align 8
  %184 = load ptr, ptr %4, align 8
  %185 = getelementptr inbounds nuw %struct.BufFile, ptr %184, i32 0, i32 9
  store i64 %183, ptr %185, align 8
  %186 = load ptr, ptr %4, align 8
  %187 = getelementptr inbounds nuw %struct.BufFile, ptr %186, i32 0, i32 10
  store i32 0, ptr %187, align 8
  %188 = load ptr, ptr %4, align 8
  %189 = getelementptr inbounds nuw %struct.BufFile, ptr %188, i32 0, i32 11
  store i32 0, ptr %189, align 4
  br label %208

190:                                              ; preds = %176, %170
  %191 = load i32, ptr %8, align 4
  %192 = load ptr, ptr %4, align 8
  %193 = getelementptr inbounds nuw %struct.BufFile, ptr %192, i32 0, i32 8
  %194 = load i32, ptr %193, align 8
  %195 = icmp slt i32 %191, %194
  br i1 %195, label %196, label %207

196:                                              ; preds = %190
  %197 = load i32, ptr %8, align 4
  %198 = load ptr, ptr %4, align 8
  %199 = getelementptr inbounds nuw %struct.BufFile, ptr %198, i32 0, i32 8
  store i32 %197, ptr %199, align 8
  %200 = load i64, ptr %9, align 8
  %201 = load ptr, ptr %4, align 8
  %202 = getelementptr inbounds nuw %struct.BufFile, ptr %201, i32 0, i32 9
  store i64 %200, ptr %202, align 8
  %203 = load ptr, ptr %4, align 8
  %204 = getelementptr inbounds nuw %struct.BufFile, ptr %203, i32 0, i32 10
  store i32 0, ptr %204, align 8
  %205 = load ptr, ptr %4, align 8
  %206 = getelementptr inbounds nuw %struct.BufFile, ptr %205, i32 0, i32 11
  store i32 0, ptr %206, align 4
  br label %207

207:                                              ; preds = %196, %190
  br label %208

208:                                              ; preds = %207, %182
  br label %209

209:                                              ; preds = %208, %161
  call void @llvm.lifetime.end.p0(i64 4, ptr %11) #8
  call void @llvm.lifetime.end.p0(i64 1024, ptr %10) #8
  call void @llvm.lifetime.end.p0(i64 8, ptr %9) #8
  call void @llvm.lifetime.end.p0(i64 4, ptr %8) #8
  call void @llvm.lifetime.end.p0(i64 4, ptr %7) #8
  ret void
}