; Function Attrs: nounwind uwtable
define dso_local void @BufFileTruncateFileSet(ptr noundef captures(none) %0, i32 noundef %1, i64 noundef %2) local_unnamed_addr #0 {
  %4 = alloca [1024 x i8], align 16
  %5 = load i32, ptr %0, align 8
  %6 = getelementptr inbounds nuw i8, ptr %0, i64 56
  %7 = load i64, ptr %6, align 8
  call void @llvm.lifetime.start.p0(i64 1024, ptr nonnull %4) #10
  %.079 = add i32 %5, -1
  %.not80 = icmp slt i32 %.079, %1
  br i1 %.not80, label %._crit_edge, label %.lr.ph

.lr.ph:                                           ; preds = %3
  %8 = icmp eq i64 %2, 0
  %9 = getelementptr inbounds nuw i8, ptr %0, i64 8
  %10 = getelementptr inbounds nuw i8, ptr %0, i64 32
  %11 = getelementptr inbounds nuw i8, ptr %0, i64 24
  br label %12

12:                                               ; preds = %.lr.ph, %47
  %.083 = phi i32 [ %.079, %.lr.ph ], [ %.0, %47 ]
  %.06382 = phi i32 [ %1, %.lr.ph ], [ %.164, %47 ]
  %.06581 = phi i32 [ %5, %.lr.ph ], [ %.166, %47 ]
  %13 = icmp ne i32 %.083, %1
  %or.cond = or i1 %8, %13
  %14 = icmp ne i32 %.083, 0
  %or.cond3 = and i1 %14, %or.cond
  br i1 %or.cond3, label %15, label %32

15:                                               ; preds = %12
  %16 = load ptr, ptr %10, align 8
  %17 = call i32 (ptr, i64, ptr, ...) @pg_snprintf(ptr noundef nonnull %4, i64 noundef 1024, ptr noundef nonnull @.str.8, ptr noundef %16, i32 noundef %.083) #10
  %18 = load ptr, ptr %9, align 8
  %19 = sext i32 %.083 to i64
  %20 = getelementptr inbounds i32, ptr %18, i64 %19
  %21 = load i32, ptr %20, align 4
  call void @FileClose(i32 noundef %21) #10
  %22 = load ptr, ptr %11, align 8
  %23 = call zeroext i1 @FileSetDelete(ptr noundef %22, ptr noundef nonnull %4, i1 noundef zeroext true) #10
  br i1 %23, label %28, label %24

24:                                               ; preds = %15
  %25 = call zeroext i1 @errstart_cold(i32 noundef 21, ptr noundef null) #11
  call void @llvm.assume(i1 %25)
  %26 = call i32 @errcode_for_file_access() #10
  %27 = call i32 (ptr, ...) @errmsg(ptr noundef nonnull @.str.6, ptr noundef nonnull %4) #10
  call void @errfinish(ptr noundef nonnull @.str.1, i32 noundef 952, ptr noundef nonnull @__func__.BufFileTruncateFileSet) #10
  unreachable

28:                                               ; preds = %15
  %29 = add i32 %.06581, -1
  %30 = icmp eq i32 %.083, %1
  %31 = sext i1 %30 to i32
  %spec.select = add i32 %.06382, %31
  br label %47

32:                                               ; preds = %12
  %33 = load ptr, ptr %9, align 8
  %34 = sext i32 %.083 to i64
  %35 = getelementptr inbounds i32, ptr %33, i64 %34
  %36 = load i32, ptr %35, align 4
  %37 = call i32 @FileTruncate(i32 noundef %36, i64 noundef %2, i32 noundef 167772164) #10
  %38 = icmp slt i32 %37, 0
  br i1 %38, label %39, label %47

39:                                               ; preds = %32
  %40 = call zeroext i1 @errstart_cold(i32 noundef 21, ptr noundef null) #11
  call void @llvm.assume(i1 %40)
  %41 = call i32 @errcode_for_file_access() #10
  %42 = load ptr, ptr %9, align 8
  %43 = getelementptr inbounds i32, ptr %42, i64 %34
  %44 = load i32, ptr %43, align 4
  %45 = call ptr @FilePathName(i32 noundef %44) #10
  %46 = call i32 (ptr, ...) @errmsg(ptr noundef nonnull @.str.7, ptr noundef %45) #10
  call void @errfinish(ptr noundef nonnull @.str.1, i32 noundef 970, ptr noundef nonnull @__func__.BufFileTruncateFileSet) #10
  unreachable

47:                                               ; preds = %28, %32
  %.166 = phi i32 [ %29, %28 ], [ %.06581, %32 ]
  %.164 = phi i32 [ %spec.select, %28 ], [ %.06382, %32 ]
  %.1 = phi i64 [ 1073741824, %28 ], [ %2, %32 ]
  %.0 = add i32 %.083, -1
  %.not = icmp slt i32 %.0, %1
  br i1 %.not, label %._crit_edge, label %12, !llvm.loop !14

._crit_edge:                                      ; preds = %47, %3
  %.065.lcssa = phi i32 [ %5, %3 ], [ %.166, %47 ]
  %.063.lcssa = phi i32 [ %1, %3 ], [ %.164, %47 ]
  %.062.lcssa = phi i64 [ %7, %3 ], [ %.1, %47 ]
  store i32 %.065.lcssa, ptr %0, align 8
  %48 = getelementptr inbounds nuw i8, ptr %0, i64 48
  %49 = load i32, ptr %48, align 8
  %50 = icmp eq i32 %.063.lcssa, %49
  br i1 %50, label %51, label %67

51:                                               ; preds = %._crit_edge
  %52 = load i64, ptr %6, align 8
  %.not69 = icmp slt i64 %.062.lcssa, %52
  br i1 %.not69, label %64, label %53

53:                                               ; preds = %51
  %54 = getelementptr inbounds nuw i8, ptr %0, i64 68
  %55 = load i32, ptr %54, align 4
  %56 = sext i32 %55 to i64
  %57 = add i64 %52, %56
  %.not70 = icmp sgt i64 %.062.lcssa, %57
  br i1 %.not70, label %67, label %58

58:                                               ; preds = %53
  %59 = getelementptr inbounds nuw i8, ptr %0, i64 64
  %60 = load i32, ptr %59, align 8
  %61 = sext i32 %60 to i64
  %62 = add i64 %52, %61
  %.not71 = icmp sgt i64 %.062.lcssa, %62
  %.pre = sub i64 %.062.lcssa, %52
  %.pre87 = trunc i64 %.pre to i32
  br i1 %.not71, label %._crit_edge86, label %63

63:                                               ; preds = %58
  store i32 %.pre87, ptr %59, align 8
  br label %._crit_edge86

._crit_edge86:                                    ; preds = %58, %63
  store i32 %.pre87, ptr %54, align 4
  br label %72

64:                                               ; preds = %51
  store i64 %.062.lcssa, ptr %6, align 8
  %65 = getelementptr inbounds nuw i8, ptr %0, i64 64
  store i32 0, ptr %65, align 8
  %66 = getelementptr inbounds nuw i8, ptr %0, i64 68
  store i32 0, ptr %66, align 4
  br label %72

67:                                               ; preds = %53, %._crit_edge
  %68 = icmp slt i32 %.063.lcssa, %49
  br i1 %68, label %69, label %72

69:                                               ; preds = %67
  store i32 %.063.lcssa, ptr %48, align 8
  store i64 %.062.lcssa, ptr %6, align 8
  %70 = getelementptr inbounds nuw i8, ptr %0, i64 64
  store i32 0, ptr %70, align 8
  %71 = getelementptr inbounds nuw i8, ptr %0, i64 68
  store i32 0, ptr %71, align 4
  br label %72

72:                                               ; preds = %64, %69, %67, %._crit_edge86
  call void @llvm.lifetime.end.p0(i64 1024, ptr nonnull %4) #10
  ret void
}